target datalayout = "e-m:e-p270:32:32-p271:32:32-p272:64:64-i64:64-i128:128-f80:128-n8:16:32:64-S128"
target triple = "x86_64-pc-linux-gnu"

%struct.TupleTableSlotOps = type { i64, ptr, ptr, ptr, ptr, ptr, ptr, ptr, ptr, ptr, ptr, ptr, ptr }
%struct.MergeJoinState = type { %struct.JoinState, i32, ptr, i32, i8, i8, i8, i8, i8, i8, i8, ptr, ptr, ptr, ptr, ptr, ptr, ptr }
%struct.JoinState = type { %struct.PlanState, i32, i8, ptr }
%struct.PlanState = type { i32, ptr, ptr, ptr, ptr, ptr, ptr, ptr, ptr, ptr, ptr, ptr, ptr, ptr, ptr, ptr, ptr, ptr, i8, ptr, ptr, ptr, ptr, ptr, i8, i8, i8, i8, i8, i8, i8, i8 }
%struct.TupleTableSlot = type { i32, i16, i16, ptr, ptr, ptr, ptr, ptr, %struct.ItemPointerData, i32 }
%struct.ItemPointerData = type { %struct.BlockIdData, i16 }
%struct.BlockIdData = type { i16, i16 }

; Function Attrs: inlinehint nounwind uwtable
define internal ptr @ExecClearTuple(ptr noundef %0) #2 {
  %2 = alloca ptr, align 8
  store ptr %0, ptr %2, align 8
  %3 = load ptr, ptr %2, align 8
  %4 = getelementptr inbounds nuw %struct.TupleTableSlot, ptr %3, i32 0, i32 3
  %5 = load ptr, ptr %4, align 8
  %6 = getelementptr inbounds nuw %struct.TupleTableSlotOps, ptr %5, i32 0, i32 3
  %7 = load ptr, ptr %6, align 8
  %8 = load ptr, ptr %2, align 8
  call void %7(ptr noundef %8)
  %9 = load ptr, ptr %2, align 8
  ret ptr %9
}

; Function Attrs: nounwind uwtable
define dso_local void @ExecReScanMergeJoin(ptr noundef %0) #0 {
  %2 = alloca ptr, align 8
  %3 = alloca ptr, align 8
  %4 = alloca ptr, align 8
  store ptr %0, ptr %2, align 8
  call void @llvm.lifetime.start.p0(i64 8, ptr %3) #7
  %5 = load ptr, ptr %2, align 8
  %6 = getelementptr inbounds nuw %struct.PlanState, ptr %5, i32 0, i32 9
  %7 = load ptr, ptr %6, align 8
  store ptr %7, ptr %3, align 8
  call void @llvm.lifetime.start.p0(i64 8, ptr %4) #7
  %8 = load ptr, ptr %2, align 8
  %9 = getelementptr inbounds nuw %struct.PlanState, ptr %8, i32 0, i32 10
  %10 = load ptr, ptr %9, align 8
  store ptr %10, ptr %4, align 8
  %11 = load ptr, ptr %2, align 8
  %12 = getelementptr inbounds nuw %struct.MergeJoinState, ptr %11, i32 0, i32 13
  %13 = load ptr, ptr %12, align 8
  %14 = call ptr @ExecClearTuple(ptr noundef %13)
  %15 = load ptr, ptr %2, align 8
  %16 = getelementptr inbounds nuw %struct.MergeJoinState, ptr %15, i32 0, i32 3
  store i32 1, ptr %16, align 8
  %17 = load ptr, ptr %2, align 8
  %18 = getelementptr inbounds nuw %struct.MergeJoinState, ptr %17, i32 0, i32 9
  store i8 0, ptr %18, align 1
  %19 = load ptr, ptr %2, align 8
  %20 = getelementptr inbounds nuw %struct.MergeJoinState, ptr %19, i32 0, i32 10
  store i8 0, ptr %20, align 2
  %21 = load ptr, ptr %2, align 8
  %22 = getelementptr inbounds nuw %struct.MergeJoinState, ptr %21, i32 0, i32 11
  store ptr null, ptr %22, align 8
  %23 = load ptr, ptr %2, align 8
  %24 = getelementptr inbounds nuw %struct.MergeJoinState, ptr %23, i32 0, i32 12
  store ptr null, ptr %24, align 8
  %25 = load ptr, ptr %3, align 8
  %26 = getelementptr inbounds nuw %struct.PlanState, ptr %25, i32 0, i32 13
  %27 = load ptr, ptr %26, align 8
  %28 = icmp eq ptr %27, null
  br i1 %28, label %29, label %31

29:                                               ; preds = %1
  %30 = load ptr, ptr %3, align 8
  call void @ExecReScan(ptr noundef %30)
  br label %31

31:                                               ; preds = %29, %1
  %32 = load ptr, ptr %4, align 8
  %33 = getelementptr inbounds nuw %struct.PlanState, ptr %32, i32 0, i32 13
  %34 = load ptr, ptr %33, align 8
  %35 = icmp eq ptr %34, null
  br i1 %35, label %36, label %38

36:                                               ; preds = %31
  %37 = load ptr, ptr %4, align 8
  call void @ExecReScan(ptr noundef %37)
  br label %38

38:                                               ; preds = %36, %31
  call void @llvm.lifetime.end.p0(i64 8, ptr %4) #7
  call void @llvm.lifetime.end.p0(i64 8, ptr %3) #7
  ret void
}