; Function Attrs: nounwind uwtable
define dso_local void @ExecReScanMergeJoin(ptr noundef captures(none) initializes((232, 236), (241, 243), (248, 264)) %0) local_unnamed_addr #0 {
  %2 = getelementptr inbounds nuw i8, ptr %0, i64 72
  %3 = load ptr, ptr %2, align 8
  %4 = getelementptr inbounds nuw i8, ptr %0, i64 80
  %5 = load ptr, ptr %4, align 8
  %6 = getelementptr inbounds nuw i8, ptr %0, i64 264
  %7 = load ptr, ptr %6, align 8
  %8 = getelementptr inbounds nuw i8, ptr %7, i64 8
  %9 = load ptr, ptr %8, align 8
  %10 = getelementptr inbounds nuw i8, ptr %9, i64 24
  %11 = load ptr, ptr %10, align 8
  tail call void %11(ptr noundef %7) #7
  %12 = getelementptr inbounds nuw i8, ptr %0, i64 232
  store i32 1, ptr %12, align 8
  %13 = getelementptr inbounds nuw i8, ptr %0, i64 241
  store i8 0, ptr %13, align 1
  %14 = getelementptr inbounds nuw i8, ptr %0, i64 242
  store i8 0, ptr %14, align 2
  %15 = getelementptr inbounds nuw i8, ptr %0, i64 248
  %16 = getelementptr inbounds nuw i8, ptr %3, i64 104
  tail call void @llvm.memset.p0.i64(ptr noundef nonnull align 8 dereferenceable(16) %15, i8 0, i64 16, i1 false)
  %17 = load ptr, ptr %16, align 8
  %18 = icmp eq ptr %17, null
  br i1 %18, label %19, label %20

19:                                               ; preds = %1
  tail call void @ExecReScan(ptr noundef nonnull %3) #7
  br label %20

20:                                               ; preds = %19, %1
  %21 = getelementptr inbounds nuw i8, ptr %5, i64 104
  %22 = load ptr, ptr %21, align 8
  %23 = icmp eq ptr %22, null
  br i1 %23, label %24, label %25

24:                                               ; preds = %20
  tail call void @ExecReScan(ptr noundef nonnull %5) #7
  br label %25

25:                                               ; preds = %24, %20
  ret void
}